target datalayout = "e-m:e-p270:32:32-p271:32:32-p272:64:64-i64:64-i128:128-f80:128-n8:16:32:64-S128"
target triple = "x86_64-pc-linux-gnu"

%struct.SXNET_st = type { ptr, ptr }
%struct.SXNET_ID_st = type { ptr, ptr }

@SXNETID_it.local_it = internal constant { i8, [7 x i8], i64, ptr, i64, ptr, i64, ptr } { i8 1, [7 x i8] zeroinitializer, i64 16, ptr @SXNETID_seq_tt, i64 2, ptr null, i64 16, ptr @.str }, align 8
@SXNET_it.local_it = internal constant { i8, [7 x i8], i64, ptr, i64, ptr, i64, ptr } { i8 1, [7 x i8] zeroinitializer, i64 16, ptr @SXNET_seq_tt, i64 2, ptr null, i64 16, ptr @.str.1 }, align 8
@.str.2 = private unnamed_addr constant [34 x i8] c"../openssl/crypto/x509/v3_sxnet.c\00", align 1
@__func__.SXNET_add_id_INTEGER = private unnamed_addr constant [21 x i8] c"SXNET_add_id_INTEGER\00", align 1

; Function Attrs: nounwind uwtable
define ptr @SXNETID_it() #0 {
  ret ptr @SXNETID_it.local_it
}

; Function Attrs: inlinehint nounwind uwtable
define internal ptr @ossl_check_const_SXNETID_sk_type(ptr noundef %0) #4 {
  %2 = alloca ptr, align 8
  store ptr %0, ptr %2, align 8, !tbaa !47
  %3 = load ptr, ptr %2, align 8, !tbaa !47
  ret ptr %3
}

; Function Attrs: nounwind uwtable
define ptr @SXNET_it() #0 {
  ret ptr @SXNET_it.local_it
}

; Function Attrs: nounwind uwtable
define void @SXNETID_free(ptr noundef %0) #0 {
  %2 = alloca ptr, align 8
  store ptr %0, ptr %2, align 8, !tbaa !32
  %3 = load ptr, ptr %2, align 8, !tbaa !32
  %4 = call ptr @SXNETID_it()
  call void @ASN1_item_free(ptr noundef %3, ptr noundef %4)
  ret void
}

; Function Attrs: inlinehint nounwind uwtable
define internal ptr @ossl_check_SXNETID_type(ptr noundef %0) #4 {
  %2 = alloca ptr, align 8
  store ptr %0, ptr %2, align 8, !tbaa !32
  %3 = load ptr, ptr %2, align 8, !tbaa !32
  ret ptr %3
}

; Function Attrs: inlinehint nounwind uwtable
define internal ptr @ossl_check_SXNETID_sk_type(ptr noundef %0) #4 {
  %2 = alloca ptr, align 8
  store ptr %0, ptr %2, align 8, !tbaa !47
  %3 = load ptr, ptr %2, align 8, !tbaa !47
  ret ptr %3
}

; Function Attrs: nounwind uwtable
define ptr @SXNETID_new() #0 {
  %1 = call ptr @SXNETID_it()
  %2 = call ptr @ASN1_item_new(ptr noundef %1)
  ret ptr %2
}

; Function Attrs: nounwind uwtable
define void @SXNET_free(ptr noundef %0) #0 {
  %2 = alloca ptr, align 8
  store ptr %0, ptr %2, align 8, !tbaa !12
  %3 = load ptr, ptr %2, align 8, !tbaa !12
  %4 = call ptr @SXNET_it()
  call void @ASN1_item_free(ptr noundef %3, ptr noundef %4)
  ret void
}

; Function Attrs: nounwind uwtable
define ptr @SXNET_get_id_INTEGER(ptr noundef %0, ptr noundef %1) #0 {
  %3 = alloca ptr, align 8
  %4 = alloca ptr, align 8
  %5 = alloca ptr, align 8
  %6 = alloca ptr, align 8
  %7 = alloca i32, align 4
  %8 = alloca i32, align 4
  store ptr %0, ptr %4, align 8, !tbaa !12
  store ptr %1, ptr %5, align 8, !tbaa !45
  call void @llvm.lifetime.start.p0(i64 8, ptr %6) #5
  call void @llvm.lifetime.start.p0(i64 4, ptr %7) #5
  store i32 0, ptr %7, align 4, !tbaa !14
  br label %9

9:                                                ; preds = %35, %2
  %10 = load i32, ptr %7, align 4, !tbaa !14
  %11 = load ptr, ptr %4, align 8, !tbaa !12
  %12 = getelementptr inbounds nuw %struct.SXNET_st, ptr %11, i32 0, i32 1
  %13 = load ptr, ptr %12, align 8, !tbaa !31
  %14 = call ptr @ossl_check_const_SXNETID_sk_type(ptr noundef %13)
  %15 = call i32 @OPENSSL_sk_num(ptr noundef %14)
  %16 = icmp slt i32 %10, %15
  br i1 %16, label %17, label %38

17:                                               ; preds = %9
  %18 = load ptr, ptr %4, align 8, !tbaa !12
  %19 = getelementptr inbounds nuw %struct.SXNET_st, ptr %18, i32 0, i32 1
  %20 = load ptr, ptr %19, align 8, !tbaa !31
  %21 = call ptr @ossl_check_const_SXNETID_sk_type(ptr noundef %20)
  %22 = load i32, ptr %7, align 4, !tbaa !14
  %23 = call ptr @OPENSSL_sk_value(ptr noundef %21, i32 noundef %22)
  store ptr %23, ptr %6, align 8, !tbaa !32
  %24 = load ptr, ptr %6, align 8, !tbaa !32
  %25 = getelementptr inbounds nuw %struct.SXNET_ID_st, ptr %24, i32 0, i32 0
  %26 = load ptr, ptr %25, align 8, !tbaa !34
  %27 = load ptr, ptr %5, align 8, !tbaa !45
  %28 = call i32 @ASN1_INTEGER_cmp(ptr noundef %26, ptr noundef %27)
  %29 = icmp ne i32 %28, 0
  br i1 %29, label %34, label %30

30:                                               ; preds = %17
  %31 = load ptr, ptr %6, align 8, !tbaa !32
  %32 = getelementptr inbounds nuw %struct.SXNET_ID_st, ptr %31, i32 0, i32 1
  %33 = load ptr, ptr %32, align 8, !tbaa !37
  store ptr %33, ptr %3, align 8
  store i32 1, ptr %8, align 4
  br label %39

34:                                               ; preds = %17
  br label %35

35:                                               ; preds = %34
  %36 = load i32, ptr %7, align 4, !tbaa !14
  %37 = add nsw i32 %36, 1
  store i32 %37, ptr %7, align 4, !tbaa !14
  br label %9, !llvm.loop !46

38:                                               ; preds = %9
  store ptr null, ptr %3, align 8
  store i32 1, ptr %8, align 4
  br label %39

39:                                               ; preds = %38, %30
  call void @llvm.lifetime.end.p0(i64 4, ptr %7) #5
  call void @llvm.lifetime.end.p0(i64 8, ptr %6) #5
  %40 = load ptr, ptr %3, align 8
  ret ptr %40
}

; Function Attrs: nounwind uwtable
define ptr @SXNET_new() #0 {
  %1 = call ptr @SXNET_it()
  %2 = call ptr @ASN1_item_new(ptr noundef %1)
  ret ptr %2
}

; Function Attrs: nounwind uwtable
define i32 @SXNET_add_id_INTEGER(ptr noundef %0, ptr noundef %1, ptr noundef %2, i32 noundef %3) #0 {
  %5 = alloca i32, align 4
  %6 = alloca ptr, align 8
  %7 = alloca ptr, align 8
  %8 = alloca ptr, align 8
  %9 = alloca i32, align 4
  %10 = alloca ptr, align 8
  %11 = alloca ptr, align 8
  %12 = alloca i32, align 4
  store ptr %0, ptr %6, align 8, !tbaa !43
  store ptr %1, ptr %7, align 8, !tbaa !45
  store ptr %2, ptr %8, align 8, !tbaa !36
  store i32 %3, ptr %9, align 4, !tbaa !14
  call void @llvm.lifetime.start.p0(i64 8, ptr %10) #5
  store ptr null, ptr %10, align 8, !tbaa !12
  call void @llvm.lifetime.start.p0(i64 8, ptr %11) #5
  store ptr null, ptr %11, align 8, !tbaa !32
  %13 = load ptr, ptr %6, align 8, !tbaa !43
  %14 = icmp eq ptr %13, null
  br i1 %14, label %21, label %15

15:                                               ; preds = %4
  %16 = load ptr, ptr %7, align 8, !tbaa !45
  %17 = icmp eq ptr %16, null
  br i1 %17, label %21, label %18

18:                                               ; preds = %15
  %19 = load ptr, ptr %8, align 8, !tbaa !36
  %20 = icmp eq ptr %19, null
  br i1 %20, label %21, label %22

21:                                               ; preds = %18, %15, %4
  call void @ERR_new()
  call void @ERR_set_debug(ptr noundef @.str.2, i32 noundef 167, ptr noundef @__func__.SXNET_add_id_INTEGER)
  call void (i32, i32, ptr, ...) @ERR_set_error(i32 noundef 34, i32 noundef 107, ptr noundef null)
  store i32 0, ptr %5, align 4
  store i32 1, ptr %12, align 4
  br label %104

22:                                               ; preds = %18
  %23 = load i32, ptr %9, align 4, !tbaa !14
  %24 = icmp eq i32 %23, -1
  br i1 %24, label %25, label %29

25:                                               ; preds = %22
  %26 = load ptr, ptr %8, align 8, !tbaa !36
  %27 = call i64 @strlen(ptr noundef %26) #6
  %28 = trunc i64 %27 to i32
  store i32 %28, ptr %9, align 4, !tbaa !14
  br label %29

29:                                               ; preds = %25, %22
  %30 = load i32, ptr %9, align 4, !tbaa !14
  %31 = icmp sgt i32 %30, 64
  br i1 %31, label %32, label %33

32:                                               ; preds = %29
  call void @ERR_new()
  call void @ERR_set_debug(ptr noundef @.str.2, i32 noundef 173, ptr noundef @__func__.SXNET_add_id_INTEGER)
  call void (i32, i32, ptr, ...) @ERR_set_error(i32 noundef 34, i32 noundef 132, ptr noundef null)
  store i32 0, ptr %5, align 4
  store i32 1, ptr %12, align 4
  br label %104

33:                                               ; preds = %29
  %34 = load ptr, ptr %6, align 8, !tbaa !43
  %35 = load ptr, ptr %34, align 8, !tbaa !12
  %36 = icmp eq ptr %35, null
  br i1 %36, label %37, label %49

37:                                               ; preds = %33
  %38 = call ptr @SXNET_new()
  store ptr %38, ptr %10, align 8, !tbaa !12
  %39 = icmp eq ptr %38, null
  br i1 %39, label %40, label %41

40:                                               ; preds = %37
  call void @ERR_new()
  call void @ERR_set_debug(ptr noundef @.str.2, i32 noundef 178, ptr noundef @__func__.SXNET_add_id_INTEGER)
  call void (i32, i32, ptr, ...) @ERR_set_error(i32 noundef 34, i32 noundef 524301, ptr noundef null)
  br label %96

41:                                               ; preds = %37
  %42 = load ptr, ptr %10, align 8, !tbaa !12
  %43 = getelementptr inbounds nuw %struct.SXNET_st, ptr %42, i32 0, i32 0
  %44 = load ptr, ptr %43, align 8, !tbaa !25
  %45 = call i32 @ASN1_INTEGER_set(ptr noundef %44, i64 noundef 0)
  %46 = icmp ne i32 %45, 0
  br i1 %46, label %48, label %47

47:                                               ; preds = %41
  call void @ERR_new()
  call void @ERR_set_debug(ptr noundef @.str.2, i32 noundef 182, ptr noundef @__func__.SXNET_add_id_INTEGER)
  call void (i32, i32, ptr, ...) @ERR_set_error(i32 noundef 34, i32 noundef 524301, ptr noundef null)
  br label %96

48:                                               ; preds = %41
  br label %52

49:                                               ; preds = %33
  %50 = load ptr, ptr %6, align 8, !tbaa !43
  %51 = load ptr, ptr %50, align 8, !tbaa !12
  store ptr %51, ptr %10, align 8, !tbaa !12
  br label %52

52:                                               ; preds = %49, %48
  %53 = load ptr, ptr %10, align 8, !tbaa !12
  %54 = load ptr, ptr %7, align 8, !tbaa !45
  %55 = call ptr @SXNET_get_id_INTEGER(ptr noundef %53, ptr noundef %54)
  %56 = icmp ne ptr %55, null
  br i1 %56, label %57, label %64

57:                                               ; preds = %52
  call void @ERR_new()
  call void @ERR_set_debug(ptr noundef @.str.2, i32 noundef 188, ptr noundef @__func__.SXNET_add_id_INTEGER)
  call void (i32, i32, ptr, ...) @ERR_set_error(i32 noundef 34, i32 noundef 133, ptr noundef null)
  %58 = load ptr, ptr %6, align 8, !tbaa !43
  %59 = load ptr, ptr %58, align 8, !tbaa !12
  %60 = icmp eq ptr %59, null
  br i1 %60, label %61, label %63

61:                                               ; preds = %57
  %62 = load ptr, ptr %10, align 8, !tbaa !12
  call void @SXNET_free(ptr noundef %62)
  br label %63

63:                                               ; preds = %61, %57
  store i32 0, ptr %5, align 4
  store i32 1, ptr %12, align 4
  br label %104

64:                                               ; preds = %52
  %65 = call ptr @SXNETID_new()
  store ptr %65, ptr %11, align 8, !tbaa !32
  %66 = icmp eq ptr %65, null
  br i1 %66, label %67, label %68

67:                                               ; preds = %64
  call void @ERR_new()
  call void @ERR_set_debug(ptr noundef @.str.2, i32 noundef 195, ptr noundef @__func__.SXNET_add_id_INTEGER)
  call void (i32, i32, ptr, ...) @ERR_set_error(i32 noundef 34, i32 noundef 524301, ptr noundef null)
  br label %96

68:                                               ; preds = %64
  %69 = load ptr, ptr %11, align 8, !tbaa !32
  %70 = getelementptr inbounds nuw %struct.SXNET_ID_st, ptr %69, i32 0, i32 1
  %71 = load ptr, ptr %70, align 8, !tbaa !37
  %72 = load ptr, ptr %8, align 8, !tbaa !36
  %73 = load i32, ptr %9, align 4, !tbaa !14
  %74 = call i32 @ASN1_OCTET_STRING_set(ptr noundef %71, ptr noundef %72, i32 noundef %73)
  %75 = icmp ne i32 %74, 0
  br i1 %75, label %77, label %76

76:                                               ; preds = %68
  call void @ERR_new()
  call void @ERR_set_debug(ptr noundef @.str.2, i32 noundef 200, ptr noundef @__func__.SXNET_add_id_INTEGER)
  call void (i32, i32, ptr, ...) @ERR_set_error(i32 noundef 34, i32 noundef 524301, ptr noundef null)
  br label %96

77:                                               ; preds = %68
  %78 = load ptr, ptr %10, align 8, !tbaa !12
  %79 = getelementptr inbounds nuw %struct.SXNET_st, ptr %78, i32 0, i32 1
  %80 = load ptr, ptr %79, align 8, !tbaa !31
  %81 = call ptr @ossl_check_SXNETID_sk_type(ptr noundef %80)
  %82 = load ptr, ptr %11, align 8, !tbaa !32
  %83 = call ptr @ossl_check_SXNETID_type(ptr noundef %82)
  %84 = call i32 @OPENSSL_sk_push(ptr noundef %81, ptr noundef %83)
  %85 = icmp ne i32 %84, 0
  br i1 %85, label %87, label %86

86:                                               ; preds = %77
  call void @ERR_new()
  call void @ERR_set_debug(ptr noundef @.str.2, i32 noundef 204, ptr noundef @__func__.SXNET_add_id_INTEGER)
  call void (i32, i32, ptr, ...) @ERR_set_error(i32 noundef 34, i32 noundef 524303, ptr noundef null)
  br label %96

87:                                               ; preds = %77
  %88 = load ptr, ptr %11, align 8, !tbaa !32
  %89 = getelementptr inbounds nuw %struct.SXNET_ID_st, ptr %88, i32 0, i32 0
  %90 = load ptr, ptr %89, align 8, !tbaa !34
  call void @ASN1_INTEGER_free(ptr noundef %90)
  %91 = load ptr, ptr %7, align 8, !tbaa !45
  %92 = load ptr, ptr %11, align 8, !tbaa !32
  %93 = getelementptr inbounds nuw %struct.SXNET_ID_st, ptr %92, i32 0, i32 0
  store ptr %91, ptr %93, align 8, !tbaa !34
  %94 = load ptr, ptr %10, align 8, !tbaa !12
  %95 = load ptr, ptr %6, align 8, !tbaa !43
  store ptr %94, ptr %95, align 8, !tbaa !12
  store i32 1, ptr %5, align 4
  store i32 1, ptr %12, align 4
  br label %104

96:                                               ; preds = %86, %76, %67, %47, %40
  %97 = load ptr, ptr %11, align 8, !tbaa !32
  call void @SXNETID_free(ptr noundef %97)
  %98 = load ptr, ptr %6, align 8, !tbaa !43
  %99 = load ptr, ptr %98, align 8, !tbaa !12
  %100 = icmp eq ptr %99, null
  br i1 %100, label %101, label %103

101:                                              ; preds = %96
  %102 = load ptr, ptr %10, align 8, !tbaa !12
  call void @SXNET_free(ptr noundef %102)
  br label %103

103:                                              ; preds = %101, %96
  store i32 0, ptr %5, align 4
  store i32 1, ptr %12, align 4
  br label %104

104:                                              ; preds = %103, %87, %63, %32, %21
  call void @llvm.lifetime.end.p0(i64 8, ptr %11) #5
  call void @llvm.lifetime.end.p0(i64 8, ptr %10) #5
  %105 = load i32, ptr %5, align 4
  ret i32 %105
}