; Function Attrs: nounwind uwtable
define range(i32 0, 2) i32 @SXNET_add_id_INTEGER(ptr noundef captures(address_is_null) %0, ptr noundef %1, ptr noundef %2, i32 noundef %3) local_unnamed_addr #1 {
  %5 = icmp eq ptr %0, null
  %6 = icmp eq ptr %1, null
  %or.cond = or i1 %5, %6
  %7 = icmp eq ptr %2, null
  %or.cond3 = or i1 %or.cond, %7
  br i1 %or.cond3, label %8, label %9

8:                                                ; preds = %4
  tail call void @ERR_new() #5
  tail call void @ERR_set_debug(ptr noundef nonnull @.str.2, i32 noundef 167, ptr noundef nonnull @__func__.SXNET_add_id_INTEGER) #5
  tail call void (i32, i32, ptr, ...) @ERR_set_error(i32 noundef 34, i32 noundef 107, ptr noundef null) #5
  br label %61

9:                                                ; preds = %4
  %10 = icmp eq i32 %3, -1
  br i1 %10, label %11, label %14

11:                                               ; preds = %9
  %12 = tail call i64 @strlen(ptr noundef nonnull dereferenceable(1) %2) #6
  %13 = trunc i64 %12 to i32
  br label %14

14:                                               ; preds = %11, %9
  %.030 = phi i32 [ %13, %11 ], [ %3, %9 ]
  %15 = icmp sgt i32 %.030, 64
  br i1 %15, label %16, label %17

16:                                               ; preds = %14
  tail call void @ERR_new() #5
  tail call void @ERR_set_debug(ptr noundef nonnull @.str.2, i32 noundef 173, ptr noundef nonnull @__func__.SXNET_add_id_INTEGER) #5
  tail call void (i32, i32, ptr, ...) @ERR_set_error(i32 noundef 34, i32 noundef 132, ptr noundef null) #5
  br label %61

17:                                               ; preds = %14
  %18 = load ptr, ptr %0, align 8, !tbaa !3
  %19 = icmp eq ptr %18, null
  br i1 %19, label %20, label %26

20:                                               ; preds = %17
  %21 = tail call ptr @ASN1_item_new(ptr noundef nonnull @SXNET_it.local_it) #5
  %22 = icmp eq ptr %21, null
  br i1 %22, label %57, label %23

23:                                               ; preds = %20
  %24 = load ptr, ptr %21, align 8, !tbaa !14
  %25 = tail call i32 @ASN1_INTEGER_set(ptr noundef %24, i64 noundef 0) #5
  %.not = icmp eq i32 %25, 0
  br i1 %.not, label %57, label %26

26:                                               ; preds = %17, %23
  %.1 = phi ptr [ %21, %23 ], [ %18, %17 ]
  %27 = getelementptr inbounds nuw i8, ptr %.1, i64 8
  %28 = load ptr, ptr %27, align 8, !tbaa !18
  %29 = tail call i32 @OPENSSL_sk_num(ptr noundef %28) #5
  %30 = icmp sgt i32 %29, 0
  br i1 %30, label %.lr.ph.i, label %SXNET_get_id_INTEGER.exit.thread

31:                                               ; preds = %.lr.ph.i
  %32 = add nuw nsw i32 %.09.i, 1
  %33 = load ptr, ptr %27, align 8, !tbaa !18
  %34 = tail call i32 @OPENSSL_sk_num(ptr noundef %33) #5
  %35 = icmp slt i32 %32, %34
  br i1 %35, label %.lr.ph.i, label %SXNET_get_id_INTEGER.exit.thread, !llvm.loop !23

.lr.ph.i:                                         ; preds = %26, %31
  %.09.i = phi i32 [ %32, %31 ], [ 0, %26 ]
  %36 = load ptr, ptr %27, align 8, !tbaa !18
  %37 = tail call ptr @OPENSSL_sk_value(ptr noundef %36, i32 noundef %.09.i) #5
  %38 = load ptr, ptr %37, align 8, !tbaa !19
  %39 = tail call i32 @ASN1_INTEGER_cmp(ptr noundef %38, ptr noundef %1) #5
  %.not.i = icmp eq i32 %39, 0
  br i1 %.not.i, label %SXNET_get_id_INTEGER.exit, label %31

SXNET_get_id_INTEGER.exit:                        ; preds = %.lr.ph.i
  %40 = getelementptr inbounds nuw i8, ptr %37, i64 8
  %41 = load ptr, ptr %40, align 8, !tbaa !21
  %.not41 = icmp eq ptr %41, null
  br i1 %.not41, label %SXNET_get_id_INTEGER.exit.thread, label %42

42:                                               ; preds = %SXNET_get_id_INTEGER.exit
  tail call void @ERR_new() #5
  tail call void @ERR_set_debug(ptr noundef nonnull @.str.2, i32 noundef 188, ptr noundef nonnull @__func__.SXNET_add_id_INTEGER) #5
  tail call void (i32, i32, ptr, ...) @ERR_set_error(i32 noundef 34, i32 noundef 133, ptr noundef null) #5
  %43 = load ptr, ptr %0, align 8, !tbaa !3
  %44 = icmp eq ptr %43, null
  br i1 %44, label %45, label %61

45:                                               ; preds = %42
  tail call void @ASN1_item_free(ptr noundef nonnull %.1, ptr noundef nonnull @SXNET_it.local_it) #5
  br label %61

SXNET_get_id_INTEGER.exit.thread:                 ; preds = %31, %26, %SXNET_get_id_INTEGER.exit
  %46 = tail call ptr @ASN1_item_new(ptr noundef nonnull @SXNETID_it.local_it) #5
  %47 = icmp eq ptr %46, null
  br i1 %47, label %57, label %48

48:                                               ; preds = %SXNET_get_id_INTEGER.exit.thread
  %49 = getelementptr inbounds nuw i8, ptr %46, i64 8
  %50 = load ptr, ptr %49, align 8, !tbaa !21
  %51 = tail call i32 @ASN1_OCTET_STRING_set(ptr noundef %50, ptr noundef %2, i32 noundef %.030) #5
  %.not42 = icmp eq i32 %51, 0
  br i1 %.not42, label %57, label %52

52:                                               ; preds = %48
  %53 = load ptr, ptr %27, align 8, !tbaa !18
  %54 = tail call i32 @OPENSSL_sk_push(ptr noundef %53, ptr noundef nonnull %46) #5
  %.not43 = icmp eq i32 %54, 0
  br i1 %.not43, label %57, label %55

55:                                               ; preds = %52
  %56 = load ptr, ptr %46, align 8, !tbaa !19
  tail call void @ASN1_INTEGER_free(ptr noundef %56) #5
  store ptr %1, ptr %46, align 8, !tbaa !19
  store ptr %.1, ptr %0, align 8, !tbaa !3
  br label %61

57:                                               ; preds = %52, %48, %SXNET_get_id_INTEGER.exit.thread, %23, %20
  %.sink49 = phi i32 [ 178, %20 ], [ 182, %23 ], [ 195, %SXNET_get_id_INTEGER.exit.thread ], [ 200, %48 ], [ 204, %52 ]
  %.sink = phi i32 [ 524301, %20 ], [ 524301, %23 ], [ 524301, %SXNET_get_id_INTEGER.exit.thread ], [ 524301, %48 ], [ 524303, %52 ]
  %.029 = phi ptr [ null, %20 ], [ %21, %23 ], [ %.1, %SXNET_get_id_INTEGER.exit.thread ], [ %.1, %48 ], [ %.1, %52 ]
  %.0 = phi ptr [ null, %20 ], [ null, %23 ], [ null, %SXNET_get_id_INTEGER.exit.thread ], [ %46, %48 ], [ %46, %52 ]
  tail call void @ERR_new() #5
  tail call void @ERR_set_debug(ptr noundef nonnull @.str.2, i32 noundef %.sink49, ptr noundef nonnull @__func__.SXNET_add_id_INTEGER) #5
  tail call void (i32, i32, ptr, ...) @ERR_set_error(i32 noundef 34, i32 noundef %.sink, ptr noundef null) #5
  tail call void @ASN1_item_free(ptr noundef %.0, ptr noundef nonnull @SXNETID_it.local_it) #5
  %58 = load ptr, ptr %0, align 8, !tbaa !3
  %59 = icmp eq ptr %58, null
  br i1 %59, label %60, label %61

60:                                               ; preds = %57
  tail call void @ASN1_item_free(ptr noundef %.029, ptr noundef nonnull @SXNET_it.local_it) #5
  br label %61

61:                                               ; preds = %57, %60, %42, %45, %55, %16, %8
  %.031 = phi i32 [ 0, %8 ], [ 0, %16 ], [ 1, %55 ], [ 0, %45 ], [ 0, %42 ], [ 0, %60 ], [ 0, %57 ]
  ret i32 %.031
}